; Function Attrs: nounwind uwtable
define ptr @l___private_Lean_Meta_Tactic_Grind_EMatch_0__Lean_Meta_Grind_EMatch_addNewInstance___lambda__1(ptr noundef %0, ptr noundef %1, ptr noundef %2, ptr noundef %3, ptr noundef readnone captures(none) %4, ptr noundef readnone captures(none) %5, ptr noundef readnone captures(none) %6, ptr noundef %7, ptr noundef %8, ptr noundef %9, ptr noundef %10, ptr noundef %11, ptr noundef %12, ptr noundef %13, ptr noundef %14, ptr noundef %15) local_unnamed_addr #0 {
  %17 = ptrtoint ptr %0 to i64
  %18 = and i64 %17, 1
  %.not = icmp eq i64 %18, 0
  br i1 %.not, label %.critedge.i, label %19, !prof !17

19:                                               ; preds = %16
  %20 = lshr i64 %17, 1
  %21 = add nuw i64 %20, 1
  %22 = icmp sgt i64 %21, -1
  br i1 %22, label %23, label %27, !prof !11

23:                                               ; preds = %19
  %24 = shl nuw i64 %21, 1
  %25 = or disjoint i64 %24, 1
  %26 = inttoptr i64 %25 to ptr
  br label %lean_nat_add.exit

27:                                               ; preds = %19
  %28 = tail call ptr @lean_big_usize_to_nat(i64 noundef range(i64 0, -1) %21) #5
  br label %lean_nat_add.exit

.critedge.i:                                      ; preds = %16
  %29 = tail call ptr @lean_nat_big_add(ptr noundef %0, ptr noundef nonnull inttoptr (i64 3 to ptr)) #5
  br label %lean_nat_add.exit

lean_nat_add.exit:                                ; preds = %27, %23, %.critedge.i
  %.0.i = phi ptr [ %29, %.critedge.i ], [ %26, %23 ], [ %28, %27 ]
  %30 = tail call ptr @l_Lean_Meta_Grind_addTheoremInstance(ptr noundef %1, ptr noundef %2, ptr noundef %3, ptr noundef %.0.i, ptr noundef %7, ptr noundef %8, ptr noundef %9, ptr noundef %10, ptr noundef %11, ptr noundef %12, ptr noundef %13, ptr noundef %14, ptr noundef %15) #5
  ret ptr %30
}